; Function Attrs: mustprogress uwtable
define hidden void @_ZN5ceres8internal10ThreadPool6ResizeEi(ptr noundef nonnull align 8 dereferenceable(240) %0, i32 noundef %1) local_unnamed_addr #3 align 2 personality ptr @__gxx_personality_v0 {
  %3 = alloca { i64, i64 }, align 8
  %4 = alloca ptr, align 8
  %5 = getelementptr inbounds nuw i8, ptr %0, i64 200
  %6 = tail call noundef i32 @pthread_mutex_lock(ptr noundef nonnull align 8 dereferenceable(40) %5) #18
  %.not.i.i = icmp eq i32 %6, 0
  br i1 %.not.i.i, label %_ZNSt10lock_guardISt5mutexEC2ERS0_.exit, label %7

7:                                                ; preds = %2
  tail call void @_ZSt20__throw_system_errori(i32 noundef %6) #19
  unreachable

_ZNSt10lock_guardISt5mutexEC2ERS0_.exit:          ; preds = %2
  %8 = getelementptr inbounds nuw i8, ptr %0, i64 176
  %9 = getelementptr inbounds nuw i8, ptr %0, i64 184
  %10 = load ptr, ptr %9, align 8, !tbaa !22
  %11 = load ptr, ptr %8, align 8, !tbaa !25
  %12 = ptrtoint ptr %10 to i64
  %13 = ptrtoint ptr %11 to i64
  %14 = sub i64 %12, %13
  %15 = lshr exact i64 %14, 3
  %16 = trunc i64 %15 to i32
  %.not = icmp sgt i32 %1, %16
  br i1 %.not, label %17, label %.loopexit

17:                                               ; preds = %_ZNSt10lock_guardISt5mutexEC2ERS0_.exit
  %18 = tail call noundef i32 @_ZNSt6thread20hardware_concurrencyEv() #18
  %19 = icmp eq i32 %18, 0
  %20 = tail call i32 @llvm.smin.i32(i32 %18, i32 %1)
  %.sroa.speculated.i = select i1 %19, i32 %1, i32 %20
  %21 = sub nsw i32 %.sroa.speculated.i, %16
  %22 = icmp sgt i32 %21, 0
  br i1 %22, label %.lr.ph, label %.loopexit

.lr.ph:                                           ; preds = %17
  %.fca.1.gep = getelementptr inbounds nuw i8, ptr %3, i64 8
  br label %23

23:                                               ; preds = %.lr.ph, %25
  %.015 = phi i32 [ 0, %.lr.ph ], [ %26, %25 ]
  call void @llvm.lifetime.start.p0(i64 16, ptr nonnull %3) #18
  store i64 ptrtoint (ptr @_ZN5ceres8internal10ThreadPool14ThreadMainLoopEv to i64), ptr %3, align 8, !tbaa !26
  store i64 0, ptr %.fca.1.gep, align 8, !tbaa !26
  call void @llvm.lifetime.start.p0(i64 8, ptr nonnull %4) #18
  store ptr %0, ptr %4, align 8, !tbaa !27
  %24 = invoke noundef nonnull align 8 dereferenceable(8) ptr @_ZNSt6vectorISt6threadSaIS0_EE12emplace_backIJMN5ceres8internal10ThreadPoolEFvvEPS6_EEERS0_DpOT_(ptr noundef nonnull align 8 dereferenceable(24) %8, ptr noundef nonnull align 8 dereferenceable(16) %3, ptr noundef nonnull align 8 dereferenceable(8) %4)
          to label %25 unwind label %27

25:                                               ; preds = %23
  call void @llvm.lifetime.end.p0(i64 8, ptr nonnull %4) #18
  call void @llvm.lifetime.end.p0(i64 16, ptr nonnull %3) #18
  %26 = add nuw nsw i32 %.015, 1
  %exitcond.not = icmp eq i32 %26, %21
  br i1 %exitcond.not, label %.loopexit, label %23, !llvm.loop !29

27:                                               ; preds = %23
  %28 = landingpad { ptr, i32 }
          cleanup
  call void @llvm.lifetime.end.p0(i64 8, ptr nonnull %4) #18
  call void @llvm.lifetime.end.p0(i64 16, ptr nonnull %3) #18
  %29 = call noundef i32 @pthread_mutex_unlock(ptr noundef nonnull align 8 dereferenceable(40) %5) #18
  resume { ptr, i32 } %28

.loopexit:                                        ; preds = %25, %17, %_ZNSt10lock_guardISt5mutexEC2ERS0_.exit
  %30 = call noundef i32 @pthread_mutex_unlock(ptr noundef nonnull align 8 dereferenceable(40) %5) #18
  ret void
}